target datalayout = "e-m:e-p270:32:32-p271:32:32-p272:64:64-i64:64-i128:128-f80:128-n8:16:32:64-S128"
target triple = "x86_64-pc-linux-gnu"

%struct.mz_stream_s = type { ptr, i32, i64, ptr, i32, i64, ptr, ptr, ptr, ptr, ptr, i32, i64, i64 }
%struct.tdefl_compressor = type { ptr, ptr, i32, [2 x i32], i32, i32, i32, i32, i32, ptr, ptr, ptr, ptr, i32, i32, i32, i32, i32, i32, i32, i32, i32, i32, i32, i32, i32, i32, ptr, ptr, ptr, ptr, i32, ptr, i64, i64, [33025 x i8], [3 x [288 x i16]], [3 x [288 x i16]], [3 x [288 x i8]], [65536 x i8], [32768 x i16], [32768 x i16], [85196 x i8] }

; Function Attrs: nounwind uwtable
define i32 @tdefl_init(ptr noundef %0, ptr noundef %1, ptr noundef %2, i32 noundef %3) #0 {
  %5 = alloca ptr, align 8
  %6 = alloca ptr, align 8
  %7 = alloca ptr, align 8
  %8 = alloca i32, align 4
  store ptr %0, ptr %5, align 8
  store ptr %1, ptr %6, align 8
  store ptr %2, ptr %7, align 8
  store i32 %3, ptr %8, align 4
  %9 = load ptr, ptr %6, align 8
  %10 = load ptr, ptr %5, align 8
  %11 = getelementptr inbounds nuw %struct.tdefl_compressor, ptr %10, i32 0, i32 0
  store ptr %9, ptr %11, align 8
  %12 = load ptr, ptr %7, align 8
  %13 = load ptr, ptr %5, align 8
  %14 = getelementptr inbounds nuw %struct.tdefl_compressor, ptr %13, i32 0, i32 1
  store ptr %12, ptr %14, align 8
  %15 = load i32, ptr %8, align 4
  %16 = load ptr, ptr %5, align 8
  %17 = getelementptr inbounds nuw %struct.tdefl_compressor, ptr %16, i32 0, i32 2
  store i32 %15, ptr %17, align 8
  %18 = load i32, ptr %8, align 4
  %19 = and i32 %18, 4095
  %20 = add nsw i32 %19, 2
  %21 = sdiv i32 %20, 3
  %22 = add nsw i32 1, %21
  %23 = load ptr, ptr %5, align 8
  %24 = getelementptr inbounds nuw %struct.tdefl_compressor, ptr %23, i32 0, i32 3
  %25 = getelementptr inbounds [2 x i32], ptr %24, i64 0, i64 0
  store i32 %22, ptr %25, align 4
  %26 = load i32, ptr %8, align 4
  %27 = and i32 %26, 16384
  %28 = icmp ne i32 %27, 0
  %29 = zext i1 %28 to i32
  %30 = load ptr, ptr %5, align 8
  %31 = getelementptr inbounds nuw %struct.tdefl_compressor, ptr %30, i32 0, i32 4
  store i32 %29, ptr %31, align 4
  %32 = load i32, ptr %8, align 4
  %33 = and i32 %32, 4095
  %34 = ashr i32 %33, 2
  %35 = add nsw i32 %34, 2
  %36 = sdiv i32 %35, 3
  %37 = add nsw i32 1, %36
  %38 = load ptr, ptr %5, align 8
  %39 = getelementptr inbounds nuw %struct.tdefl_compressor, ptr %38, i32 0, i32 3
  %40 = getelementptr inbounds [2 x i32], ptr %39, i64 0, i64 1
  store i32 %37, ptr %40, align 4
  %41 = load i32, ptr %8, align 4
  %42 = and i32 %41, 32768
  %43 = icmp ne i32 %42, 0
  br i1 %43, label %48, label %44

44:                                               ; preds = %4
  %45 = load ptr, ptr %5, align 8
  %46 = getelementptr inbounds nuw %struct.tdefl_compressor, ptr %45, i32 0, i32 41
  %47 = getelementptr inbounds [32768 x i16], ptr %46, i64 0, i64 0
  call void @llvm.memset.p0.i64(ptr align 2 %47, i8 0, i64 65536, i1 false)
  br label %48

48:                                               ; preds = %44, %4
  %49 = load ptr, ptr %5, align 8
  %50 = getelementptr inbounds nuw %struct.tdefl_compressor, ptr %49, i32 0, i32 16
  store i32 0, ptr %50, align 4
  %51 = load ptr, ptr %5, align 8
  %52 = getelementptr inbounds nuw %struct.tdefl_compressor, ptr %51, i32 0, i32 15
  store i32 0, ptr %52, align 8
  %53 = load ptr, ptr %5, align 8
  %54 = getelementptr inbounds nuw %struct.tdefl_compressor, ptr %53, i32 0, i32 14
  store i32 0, ptr %54, align 4
  %55 = load ptr, ptr %5, align 8
  %56 = getelementptr inbounds nuw %struct.tdefl_compressor, ptr %55, i32 0, i32 8
  store i32 0, ptr %56, align 4
  %57 = load ptr, ptr %5, align 8
  %58 = getelementptr inbounds nuw %struct.tdefl_compressor, ptr %57, i32 0, i32 7
  store i32 0, ptr %58, align 8
  %59 = load ptr, ptr %5, align 8
  %60 = getelementptr inbounds nuw %struct.tdefl_compressor, ptr %59, i32 0, i32 6
  store i32 0, ptr %60, align 4
  %61 = load ptr, ptr %5, align 8
  %62 = getelementptr inbounds nuw %struct.tdefl_compressor, ptr %61, i32 0, i32 25
  store i32 0, ptr %62, align 8
  %63 = load ptr, ptr %5, align 8
  %64 = getelementptr inbounds nuw %struct.tdefl_compressor, ptr %63, i32 0, i32 17
  store i32 0, ptr %64, align 8
  %65 = load ptr, ptr %5, align 8
  %66 = getelementptr inbounds nuw %struct.tdefl_compressor, ptr %65, i32 0, i32 24
  store i32 0, ptr %66, align 4
  %67 = load ptr, ptr %5, align 8
  %68 = getelementptr inbounds nuw %struct.tdefl_compressor, ptr %67, i32 0, i32 23
  store i32 0, ptr %68, align 8
  %69 = load ptr, ptr %5, align 8
  %70 = getelementptr inbounds nuw %struct.tdefl_compressor, ptr %69, i32 0, i32 22
  store i32 0, ptr %70, align 4
  %71 = load ptr, ptr %5, align 8
  %72 = getelementptr inbounds nuw %struct.tdefl_compressor, ptr %71, i32 0, i32 21
  store i32 0, ptr %72, align 8
  %73 = load ptr, ptr %5, align 8
  %74 = getelementptr inbounds nuw %struct.tdefl_compressor, ptr %73, i32 0, i32 39
  %75 = getelementptr inbounds [65536 x i8], ptr %74, i64 0, i64 0
  %76 = getelementptr inbounds i8, ptr %75, i64 1
  %77 = load ptr, ptr %5, align 8
  %78 = getelementptr inbounds nuw %struct.tdefl_compressor, ptr %77, i32 0, i32 9
  store ptr %76, ptr %78, align 8
  %79 = load ptr, ptr %5, align 8
  %80 = getelementptr inbounds nuw %struct.tdefl_compressor, ptr %79, i32 0, i32 39
  %81 = getelementptr inbounds [65536 x i8], ptr %80, i64 0, i64 0
  %82 = load ptr, ptr %5, align 8
  %83 = getelementptr inbounds nuw %struct.tdefl_compressor, ptr %82, i32 0, i32 10
  store ptr %81, ptr %83, align 8
  %84 = load ptr, ptr %5, align 8
  %85 = getelementptr inbounds nuw %struct.tdefl_compressor, ptr %84, i32 0, i32 10
  %86 = load ptr, ptr %85, align 8
  store i8 0, ptr %86, align 1
  %87 = load ptr, ptr %5, align 8
  %88 = getelementptr inbounds nuw %struct.tdefl_compressor, ptr %87, i32 0, i32 13
  store i32 8, ptr %88, align 8
  %89 = load ptr, ptr %5, align 8
  %90 = getelementptr inbounds nuw %struct.tdefl_compressor, ptr %89, i32 0, i32 42
  %91 = getelementptr inbounds [85196 x i8], ptr %90, i64 0, i64 0
  %92 = load ptr, ptr %5, align 8
  %93 = getelementptr inbounds nuw %struct.tdefl_compressor, ptr %92, i32 0, i32 11
  store ptr %91, ptr %93, align 8
  %94 = load ptr, ptr %5, align 8
  %95 = getelementptr inbounds nuw %struct.tdefl_compressor, ptr %94, i32 0, i32 42
  %96 = getelementptr inbounds [85196 x i8], ptr %95, i64 0, i64 0
  %97 = load ptr, ptr %5, align 8
  %98 = getelementptr inbounds nuw %struct.tdefl_compressor, ptr %97, i32 0, i32 12
  store ptr %96, ptr %98, align 8
  %99 = load ptr, ptr %5, align 8
  %100 = getelementptr inbounds nuw %struct.tdefl_compressor, ptr %99, i32 0, i32 26
  store i32 0, ptr %100, align 4
  %101 = load ptr, ptr %5, align 8
  %102 = getelementptr inbounds nuw %struct.tdefl_compressor, ptr %101, i32 0, i32 20
  store i32 0, ptr %102, align 4
  %103 = load ptr, ptr %5, align 8
  %104 = getelementptr inbounds nuw %struct.tdefl_compressor, ptr %103, i32 0, i32 19
  store i32 0, ptr %104, align 8
  %105 = load ptr, ptr %5, align 8
  %106 = getelementptr inbounds nuw %struct.tdefl_compressor, ptr %105, i32 0, i32 18
  store i32 0, ptr %106, align 4
  %107 = load ptr, ptr %5, align 8
  %108 = getelementptr inbounds nuw %struct.tdefl_compressor, ptr %107, i32 0, i32 5
  store i32 1, ptr %108, align 8
  %109 = load ptr, ptr %5, align 8
  %110 = getelementptr inbounds nuw %struct.tdefl_compressor, ptr %109, i32 0, i32 27
  store ptr null, ptr %110, align 8
  %111 = load ptr, ptr %5, align 8
  %112 = getelementptr inbounds nuw %struct.tdefl_compressor, ptr %111, i32 0, i32 28
  store ptr null, ptr %112, align 8
  %113 = load ptr, ptr %5, align 8
  %114 = getelementptr inbounds nuw %struct.tdefl_compressor, ptr %113, i32 0, i32 29
  store ptr null, ptr %114, align 8
  %115 = load ptr, ptr %5, align 8
  %116 = getelementptr inbounds nuw %struct.tdefl_compressor, ptr %115, i32 0, i32 30
  store ptr null, ptr %116, align 8
  %117 = load ptr, ptr %5, align 8
  %118 = getelementptr inbounds nuw %struct.tdefl_compressor, ptr %117, i32 0, i32 31
  store i32 0, ptr %118, align 8
  %119 = load ptr, ptr %5, align 8
  %120 = getelementptr inbounds nuw %struct.tdefl_compressor, ptr %119, i32 0, i32 32
  store ptr null, ptr %120, align 8
  %121 = load ptr, ptr %5, align 8
  %122 = getelementptr inbounds nuw %struct.tdefl_compressor, ptr %121, i32 0, i32 33
  store i64 0, ptr %122, align 8
  %123 = load ptr, ptr %5, align 8
  %124 = getelementptr inbounds nuw %struct.tdefl_compressor, ptr %123, i32 0, i32 34
  store i64 0, ptr %124, align 8
  %125 = load i32, ptr %8, align 4
  %126 = and i32 %125, 32768
  %127 = icmp ne i32 %126, 0
  br i1 %127, label %132, label %128

128:                                              ; preds = %48
  %129 = load ptr, ptr %5, align 8
  %130 = getelementptr inbounds nuw %struct.tdefl_compressor, ptr %129, i32 0, i32 35
  %131 = getelementptr inbounds [33025 x i8], ptr %130, i64 0, i64 0
  call void @llvm.memset.p0.i64(ptr align 8 %131, i8 0, i64 33025, i1 false)
  br label %132

132:                                              ; preds = %128, %48
  %133 = load ptr, ptr %5, align 8
  %134 = getelementptr inbounds nuw %struct.tdefl_compressor, ptr %133, i32 0, i32 36
  %135 = getelementptr inbounds [3 x [288 x i16]], ptr %134, i64 0, i64 0
  %136 = getelementptr inbounds [288 x i16], ptr %135, i64 0, i64 0
  call void @llvm.memset.p0.i64(ptr align 2 %136, i8 0, i64 576, i1 false)
  %137 = load ptr, ptr %5, align 8
  %138 = getelementptr inbounds nuw %struct.tdefl_compressor, ptr %137, i32 0, i32 36
  %139 = getelementptr inbounds [3 x [288 x i16]], ptr %138, i64 0, i64 1
  %140 = getelementptr inbounds [288 x i16], ptr %139, i64 0, i64 0
  call void @llvm.memset.p0.i64(ptr align 2 %140, i8 0, i64 64, i1 false)
  ret i32 0
}

; Function Attrs: nounwind uwtable
define i32 @mz_deflateReset(ptr noundef %0) #0 {
  %2 = alloca i32, align 4
  %3 = alloca ptr, align 8
  store ptr %0, ptr %3, align 8
  %4 = load ptr, ptr %3, align 8
  %5 = icmp ne ptr %4, null
  br i1 %5, label %6, label %21

6:                                                ; preds = %1
  %7 = load ptr, ptr %3, align 8
  %8 = getelementptr inbounds nuw %struct.mz_stream_s, ptr %7, i32 0, i32 7
  %9 = load ptr, ptr %8, align 8
  %10 = icmp ne ptr %9, null
  br i1 %10, label %11, label %21

11:                                               ; preds = %6
  %12 = load ptr, ptr %3, align 8
  %13 = getelementptr inbounds nuw %struct.mz_stream_s, ptr %12, i32 0, i32 8
  %14 = load ptr, ptr %13, align 8
  %15 = icmp ne ptr %14, null
  br i1 %15, label %16, label %21

16:                                               ; preds = %11
  %17 = load ptr, ptr %3, align 8
  %18 = getelementptr inbounds nuw %struct.mz_stream_s, ptr %17, i32 0, i32 9
  %19 = load ptr, ptr %18, align 8
  %20 = icmp ne ptr %19, null
  br i1 %20, label %22, label %21

21:                                               ; preds = %16, %11, %6, %1
  store i32 -2, ptr %2, align 4
  br label %36

22:                                               ; preds = %16
  %23 = load ptr, ptr %3, align 8
  %24 = getelementptr inbounds nuw %struct.mz_stream_s, ptr %23, i32 0, i32 5
  store i64 0, ptr %24, align 8
  %25 = load ptr, ptr %3, align 8
  %26 = getelementptr inbounds nuw %struct.mz_stream_s, ptr %25, i32 0, i32 2
  store i64 0, ptr %26, align 8
  %27 = load ptr, ptr %3, align 8
  %28 = getelementptr inbounds nuw %struct.mz_stream_s, ptr %27, i32 0, i32 7
  %29 = load ptr, ptr %28, align 8
  %30 = load ptr, ptr %3, align 8
  %31 = getelementptr inbounds nuw %struct.mz_stream_s, ptr %30, i32 0, i32 7
  %32 = load ptr, ptr %31, align 8
  %33 = getelementptr inbounds nuw %struct.tdefl_compressor, ptr %32, i32 0, i32 2
  %34 = load i32, ptr %33, align 8
  %35 = call i32 @tdefl_init(ptr noundef %29, ptr noundef null, ptr noundef null, i32 noundef %34)
  store i32 0, ptr %2, align 4
  br label %36

36:                                               ; preds = %22, %21
  %37 = load i32, ptr %2, align 4
  ret i32 %37
}